target datalayout = "e-m:e-p270:32:32-p271:32:32-p272:64:64-i64:64-i128:128-f80:128-n8:16:32:64-S128"
target triple = "x86_64-pc-linux-gnu"

%struct.tng_trajectory = type { ptr, ptr, i64, ptr, ptr, ptr, ptr, ptr, ptr, i8, i8, ptr, ptr, ptr, ptr, ptr, ptr, ptr, ptr, ptr, i64, i64, i8, i64, i64, i64, double, i64, ptr, ptr, i64, i64, i64, i64, i64, %struct.tng_trajectory_frame_set, i64, i64, i64, i32, ptr, i32, ptr, ptr, ptr, double }
%struct.tng_trajectory_frame_set = type { i64, ptr, i64, i64, i64, i64, ptr, i64, i64, i64, i64, i64, i64, i64, double, i32, ptr, i32, ptr }

; Function Attrs: nounwind uwtable
define internal i32 @tng_swap_byte_order_big_endian_32(ptr noundef %0, ptr noundef %1) #0 {
  %3 = alloca i32, align 4
  %4 = alloca ptr, align 8
  %5 = alloca ptr, align 8
  store ptr %0, ptr %4, align 8, !tbaa !3
  store ptr %1, ptr %5, align 8, !tbaa !28
  %6 = load ptr, ptr %4, align 8, !tbaa !3
  %7 = getelementptr inbounds nuw %struct.tng_trajectory, ptr %6, i32 0, i32 9
  %8 = load i8, ptr %7, align 8, !tbaa !184
  %9 = sext i8 %8 to i32
  switch i32 %9, label %43 [
    i32 1, label %10
    i32 2, label %31
    i32 0, label %42
  ]

10:                                               ; preds = %2
  %11 = load ptr, ptr %5, align 8, !tbaa !28
  %12 = load i32, ptr %11, align 4, !tbaa !20
  %13 = and i32 %12, -16777216
  %14 = lshr i32 %13, 24
  %15 = load ptr, ptr %5, align 8, !tbaa !28
  %16 = load i32, ptr %15, align 4, !tbaa !20
  %17 = and i32 %16, 16711680
  %18 = lshr i32 %17, 8
  %19 = or i32 %14, %18
  %20 = load ptr, ptr %5, align 8, !tbaa !28
  %21 = load i32, ptr %20, align 4, !tbaa !20
  %22 = and i32 %21, 65280
  %23 = shl i32 %22, 8
  %24 = or i32 %19, %23
  %25 = load ptr, ptr %5, align 8, !tbaa !28
  %26 = load i32, ptr %25, align 4, !tbaa !20
  %27 = and i32 %26, 255
  %28 = shl i32 %27, 24
  %29 = or i32 %24, %28
  %30 = load ptr, ptr %5, align 8, !tbaa !28
  store i32 %29, ptr %30, align 4, !tbaa !20
  store i32 0, ptr %3, align 4
  br label %44

31:                                               ; preds = %2
  %32 = load ptr, ptr %5, align 8, !tbaa !28
  %33 = load i32, ptr %32, align 4, !tbaa !20
  %34 = and i32 %33, -65536
  %35 = lshr i32 %34, 16
  %36 = load ptr, ptr %5, align 8, !tbaa !28
  %37 = load i32, ptr %36, align 4, !tbaa !20
  %38 = and i32 %37, 65535
  %39 = shl i32 %38, 16
  %40 = or i32 %35, %39
  %41 = load ptr, ptr %5, align 8, !tbaa !28
  store i32 %40, ptr %41, align 4, !tbaa !20
  store i32 0, ptr %3, align 4
  br label %44

42:                                               ; preds = %2
  store i32 0, ptr %3, align 4
  br label %44

43:                                               ; preds = %2
  store i32 1, ptr %3, align 4
  br label %44

44:                                               ; preds = %43, %42, %31, %10
  %45 = load i32, ptr %3, align 4
  ret i32 %45
}