; Function Attrs: mustprogress nofree norecurse nosync nounwind willreturn memory(argmem: readwrite) uwtable
define internal range(i32 0, 2) i32 @tng_swap_byte_order_big_endian_32(ptr noundef readonly captures(none) %0, ptr noundef captures(none) %1) #0 {
  %3 = getelementptr inbounds nuw i8, ptr %0, i64 72
  %4 = load i8, ptr %3, align 8, !tbaa !134
  switch i8 %4, label %11 [
    i8 1, label %5
    i8 2, label %8
    i8 0, label %12
  ]

5:                                                ; preds = %2
  %6 = load i32, ptr %1, align 4, !tbaa !17
  %7 = tail call i32 @llvm.bswap.i32(i32 %6)
  store i32 %7, ptr %1, align 4, !tbaa !17
  br label %12

8:                                                ; preds = %2
  %9 = load i32, ptr %1, align 4, !tbaa !17
  %10 = tail call i32 @llvm.fshl.i32(i32 %9, i32 %9, i32 16)
  store i32 %10, ptr %1, align 4, !tbaa !17
  br label %12

11:                                               ; preds = %2
  br label %12

12:                                               ; preds = %2, %11, %8, %5
  %.0 = phi i32 [ 1, %11 ], [ 0, %8 ], [ 0, %5 ], [ 0, %2 ]
  ret i32 %.0
}